target datalayout = "e-m:e-p270:32:32-p271:32:32-p272:64:64-i64:64-i128:128-f80:128-n8:16:32:64-S128"
target triple = "x86_64-pc-linux-gnu"

%struct.php_libxml_document_handlers = type { ptr, ptr, ptr, ptr }
%struct._php_libxml_ref_obj = type { ptr, ptr, %struct.php_libxml_cache_tag, ptr, ptr, i32, i16 }
%struct.php_libxml_cache_tag = type { i64 }

@php_new_dom_default_document_handlers = internal constant %struct.php_libxml_document_handlers { ptr @php_new_dom_dump_node_to_str, ptr @php_new_dom_dump_doc_to_str, ptr @php_new_dom_dump_node_to_file, ptr @php_new_dom_dump_doc_to_file }, align 8

; Function Attrs: nounwind uwtable
define hidden void @dom_set_xml_class(ptr noundef %0) #0 {
  %2 = alloca ptr, align 8
  store ptr %0, ptr %2, align 8, !tbaa !82
  %3 = load ptr, ptr %2, align 8, !tbaa !82
  %4 = getelementptr inbounds nuw %struct._php_libxml_ref_obj, ptr %3, i32 0, i32 6
  %5 = load i16, ptr %4, align 4
  %6 = and i16 %5, -256
  %7 = or i16 %6, 2
  store i16 %7, ptr %4, align 4
  %8 = load ptr, ptr %2, align 8, !tbaa !82
  %9 = getelementptr inbounds nuw %struct._php_libxml_ref_obj, ptr %8, i32 0, i32 4
  store ptr @php_new_dom_default_document_handlers, ptr %9, align 8, !tbaa !83
  ret void
}