; Function Attrs: mustprogress nofree norecurse nosync nounwind willreturn memory(argmem: readwrite) uwtable
define hidden void @dom_set_xml_class(ptr noundef captures(none) initializes((32, 40)) %0) local_unnamed_addr #4 {
  %2 = getelementptr inbounds nuw i8, ptr %0, i64 44
  %3 = load i16, ptr %2, align 4
  %4 = and i16 %3, -256
  %5 = or disjoint i16 %4, 2
  store i16 %5, ptr %2, align 4
  %6 = getelementptr inbounds nuw i8, ptr %0, i64 32
  store ptr @php_new_dom_default_document_handlers, ptr %6, align 8, !tbaa !67
  ret void
}